target datalayout = "e-m:e-p270:32:32-p271:32:32-p272:64:64-i64:64-i128:128-f80:128-n8:16:32:64-S128"
target triple = "x86_64-pc-linux-gnu"

%"class.llvm::StringRef" = type { ptr, i64 }
%"class.llvm::object::WasmSymbol" = type { %"struct.llvm::wasm::WasmSymbolInfo", ptr, ptr, ptr }
%"struct.llvm::wasm::WasmSymbolInfo" = type { %"class.llvm::StringRef", i8, i32, %"class.std::optional", %"class.std::optional", %"class.std::optional", %union.anon }
%"class.std::optional" = type { %"struct.std::_Optional_base" }
%"struct.std::_Optional_base" = type { %"struct.std::_Optional_payload" }
%"struct.std::_Optional_payload" = type { %"struct.std::_Optional_payload_base.base", [7 x i8] }
%"struct.std::_Optional_payload_base.base" = type <{ %"union.std::_Optional_payload_base<llvm::StringRef>::_Storage", i8 }>
%"union.std::_Optional_payload_base<llvm::StringRef>::_Storage" = type { %"class.llvm::StringRef" }
%union.anon = type { %"struct.llvm::wasm::WasmDataReference" }
%"struct.llvm::wasm::WasmDataReference" = type { i32, i64, i64 }
%"class.llvm::MemoryBufferRef" = type { %"class.llvm::StringRef", %"class.llvm::StringRef" }
%"class.llvm::ArrayRef" = type { ptr, i64 }
%"class.llvm::object::WasmObjectFile" = type <{ %"class.llvm::object::ObjectFile", %"struct.llvm::wasm::WasmObjectHeader", %"class.std::vector", %"struct.llvm::wasm::WasmDylinkInfo", %"struct.llvm::wasm::WasmProducerInfo", %"class.std::vector.24", %"class.std::vector.29", %"class.std::vector.34", %"class.std::vector.39", %"class.std::vector.44", %"class.std::vector.49", %"class.std::vector.54", %"class.std::vector.59", %"class.std::vector.64", %"class.std::vector.69", %"class.std::optional.74", %"class.std::vector.82", %"class.std::vector.87", %"class.std::vector.92", i32, i8, i8, i8, i8, %"struct.llvm::wasm::WasmLinkingData", i32, i32, i32, i32, i32, i32, i32, i32, i32, [4 x i8] }>
%"class.llvm::object::ObjectFile" = type { %"class.llvm::object::SymbolicFile" }
%"class.llvm::object::SymbolicFile" = type { %"class.llvm::object::Binary" }
%"class.llvm::object::Binary" = type { ptr, i32, %"class.llvm::MemoryBufferRef" }
%"struct.llvm::wasm::WasmObjectHeader" = type <{ %"class.llvm::StringRef", i32, [4 x i8] }>
%"class.std::vector" = type { %"struct.std::_Vector_base" }
%"struct.std::_Vector_base" = type { %"struct.std::_Vector_base<llvm::object::WasmSection, std::allocator<llvm::object::WasmSection>>::_Vector_impl" }
%"struct.std::_Vector_base<llvm::object::WasmSection, std::allocator<llvm::object::WasmSection>>::_Vector_impl" = type { %"struct.std::_Vector_base<llvm::object::WasmSection, std::allocator<llvm::object::WasmSection>>::_Vector_impl_data" }
%"struct.std::_Vector_base<llvm::object::WasmSection, std::allocator<llvm::object::WasmSection>>::_Vector_impl_data" = type { ptr, ptr, ptr }
%"struct.llvm::wasm::WasmDylinkInfo" = type { i32, i32, i32, i32, %"class.std::vector.4", %"class.std::vector.9", %"class.std::vector.14" }
%"class.std::vector.4" = type { %"struct.std::_Vector_base.5" }
%"struct.std::_Vector_base.5" = type { %"struct.std::_Vector_base<llvm::StringRef, std::allocator<llvm::StringRef>>::_Vector_impl" }
%"struct.std::_Vector_base<llvm::StringRef, std::allocator<llvm::StringRef>>::_Vector_impl" = type { %"struct.std::_Vector_base<llvm::StringRef, std::allocator<llvm::StringRef>>::_Vector_impl_data" }
%"struct.std::_Vector_base<llvm::StringRef, std::allocator<llvm::StringRef>>::_Vector_impl_data" = type { ptr, ptr, ptr }
%"class.std::vector.9" = type { %"struct.std::_Vector_base.10" }
%"struct.std::_Vector_base.10" = type { %"struct.std::_Vector_base<llvm::wasm::WasmDylinkImportInfo, std::allocator<llvm::wasm::WasmDylinkImportInfo>>::_Vector_impl" }
%"struct.std::_Vector_base<llvm::wasm::WasmDylinkImportInfo, std::allocator<llvm::wasm::WasmDylinkImportInfo>>::_Vector_impl" = type { %"struct.std::_Vector_base<llvm::wasm::WasmDylinkImportInfo, std::allocator<llvm::wasm::WasmDylinkImportInfo>>::_Vector_impl_data" }
%"struct.std::_Vector_base<llvm::wasm::WasmDylinkImportInfo, std::allocator<llvm::wasm::WasmDylinkImportInfo>>::_Vector_impl_data" = type { ptr, ptr, ptr }
%"class.std::vector.14" = type { %"struct.std::_Vector_base.15" }
%"struct.std::_Vector_base.15" = type { %"struct.std::_Vector_base<llvm::wasm::WasmDylinkExportInfo, std::allocator<llvm::wasm::WasmDylinkExportInfo>>::_Vector_impl" }
%"struct.std::_Vector_base<llvm::wasm::WasmDylinkExportInfo, std::allocator<llvm::wasm::WasmDylinkExportInfo>>::_Vector_impl" = type { %"struct.std::_Vector_base<llvm::wasm::WasmDylinkExportInfo, std::allocator<llvm::wasm::WasmDylinkExportInfo>>::_Vector_impl_data" }
%"struct.std::_Vector_base<llvm::wasm::WasmDylinkExportInfo, std::allocator<llvm::wasm::WasmDylinkExportInfo>>::_Vector_impl_data" = type { ptr, ptr, ptr }
%"struct.llvm::wasm::WasmProducerInfo" = type { %"class.std::vector.19", %"class.std::vector.19", %"class.std::vector.19" }
%"class.std::vector.19" = type { %"struct.std::_Vector_base.20" }
%"struct.std::_Vector_base.20" = type { %"struct.std::_Vector_base<std::pair<std::__cxx11::basic_string<char>, std::__cxx11::basic_string<char>>, std::allocator<std::pair<std::__cxx11::basic_string<char>, std::__cxx11::basic_string<char>>>>::_Vector_impl" }
%"struct.std::_Vector_base<std::pair<std::__cxx11::basic_string<char>, std::__cxx11::basic_string<char>>, std::allocator<std::pair<std::__cxx11::basic_string<char>, std::__cxx11::basic_string<char>>>>::_Vector_impl" = type { %"struct.std::_Vector_base<std::pair<std::__cxx11::basic_string<char>, std::__cxx11::basic_string<char>>, std::allocator<std::pair<std::__cxx11::basic_string<char>, std::__cxx11::basic_string<char>>>>::_Vector_impl_data" }
%"struct.std::_Vector_base<std::pair<std::__cxx11::basic_string<char>, std::__cxx11::basic_string<char>>, std::allocator<std::pair<std::__cxx11::basic_string<char>, std::__cxx11::basic_string<char>>>>::_Vector_impl_data" = type { ptr, ptr, ptr }
%"class.std::vector.24" = type { %"struct.std::_Vector_base.25" }
%"struct.std::_Vector_base.25" = type { %"struct.std::_Vector_base<llvm::wasm::WasmFeatureEntry, std::allocator<llvm::wasm::WasmFeatureEntry>>::_Vector_impl" }
%"struct.std::_Vector_base<llvm::wasm::WasmFeatureEntry, std::allocator<llvm::wasm::WasmFeatureEntry>>::_Vector_impl" = type { %"struct.std::_Vector_base<llvm::wasm::WasmFeatureEntry, std::allocator<llvm::wasm::WasmFeatureEntry>>::_Vector_impl_data" }
%"struct.std::_Vector_base<llvm::wasm::WasmFeatureEntry, std::allocator<llvm::wasm::WasmFeatureEntry>>::_Vector_impl_data" = type { ptr, ptr, ptr }
%"class.std::vector.29" = type { %"struct.std::_Vector_base.30" }
%"struct.std::_Vector_base.30" = type { %"struct.std::_Vector_base<llvm::wasm::WasmSignature, std::allocator<llvm::wasm::WasmSignature>>::_Vector_impl" }
%"struct.std::_Vector_base<llvm::wasm::WasmSignature, std::allocator<llvm::wasm::WasmSignature>>::_Vector_impl" = type { %"struct.std::_Vector_base<llvm::wasm::WasmSignature, std::allocator<llvm::wasm::WasmSignature>>::_Vector_impl_data" }
%"struct.std::_Vector_base<llvm::wasm::WasmSignature, std::allocator<llvm::wasm::WasmSignature>>::_Vector_impl_data" = type { ptr, ptr, ptr }
%"class.std::vector.34" = type { %"struct.std::_Vector_base.35" }
%"struct.std::_Vector_base.35" = type { %"struct.std::_Vector_base<llvm::wasm::WasmTable, std::allocator<llvm::wasm::WasmTable>>::_Vector_impl" }
%"struct.std::_Vector_base<llvm::wasm::WasmTable, std::allocator<llvm::wasm::WasmTable>>::_Vector_impl" = type { %"struct.std::_Vector_base<llvm::wasm::WasmTable, std::allocator<llvm::wasm::WasmTable>>::_Vector_impl_data" }
%"struct.std::_Vector_base<llvm::wasm::WasmTable, std::allocator<llvm::wasm::WasmTable>>::_Vector_impl_data" = type { ptr, ptr, ptr }
%"class.std::vector.39" = type { %"struct.std::_Vector_base.40" }
%"struct.std::_Vector_base.40" = type { %"struct.std::_Vector_base<llvm::wasm::WasmLimits, std::allocator<llvm::wasm::WasmLimits>>::_Vector_impl" }
%"struct.std::_Vector_base<llvm::wasm::WasmLimits, std::allocator<llvm::wasm::WasmLimits>>::_Vector_impl" = type { %"struct.std::_Vector_base<llvm::wasm::WasmLimits, std::allocator<llvm::wasm::WasmLimits>>::_Vector_impl_data" }
%"struct.std::_Vector_base<llvm::wasm::WasmLimits, std::allocator<llvm::wasm::WasmLimits>>::_Vector_impl_data" = type { ptr, ptr, ptr }
%"class.std::vector.44" = type { %"struct.std::_Vector_base.45" }
%"struct.std::_Vector_base.45" = type { %"struct.std::_Vector_base<llvm::wasm::WasmGlobal, std::allocator<llvm::wasm::WasmGlobal>>::_Vector_impl" }
%"struct.std::_Vector_base<llvm::wasm::WasmGlobal, std::allocator<llvm::wasm::WasmGlobal>>::_Vector_impl" = type { %"struct.std::_Vector_base<llvm::wasm::WasmGlobal, std::allocator<llvm::wasm::WasmGlobal>>::_Vector_impl_data" }
%"struct.std::_Vector_base<llvm::wasm::WasmGlobal, std::allocator<llvm::wasm::WasmGlobal>>::_Vector_impl_data" = type { ptr, ptr, ptr }
%"class.std::vector.49" = type { %"struct.std::_Vector_base.50" }
%"struct.std::_Vector_base.50" = type { %"struct.std::_Vector_base<llvm::wasm::WasmTag, std::allocator<llvm::wasm::WasmTag>>::_Vector_impl" }
%"struct.std::_Vector_base<llvm::wasm::WasmTag, std::allocator<llvm::wasm::WasmTag>>::_Vector_impl" = type { %"struct.std::_Vector_base<llvm::wasm::WasmTag, std::allocator<llvm::wasm::WasmTag>>::_Vector_impl_data" }
%"struct.std::_Vector_base<llvm::wasm::WasmTag, std::allocator<llvm::wasm::WasmTag>>::_Vector_impl_data" = type { ptr, ptr, ptr }
%"class.std::vector.54" = type { %"struct.std::_Vector_base.55" }
%"struct.std::_Vector_base.55" = type { %"struct.std::_Vector_base<llvm::wasm::WasmImport, std::allocator<llvm::wasm::WasmImport>>::_Vector_impl" }
%"struct.std::_Vector_base<llvm::wasm::WasmImport, std::allocator<llvm::wasm::WasmImport>>::_Vector_impl" = type { %"struct.std::_Vector_base<llvm::wasm::WasmImport, std::allocator<llvm::wasm::WasmImport>>::_Vector_impl_data" }
%"struct.std::_Vector_base<llvm::wasm::WasmImport, std::allocator<llvm::wasm::WasmImport>>::_Vector_impl_data" = type { ptr, ptr, ptr }
%"class.std::vector.59" = type { %"struct.std::_Vector_base.60" }
%"struct.std::_Vector_base.60" = type { %"struct.std::_Vector_base<llvm::wasm::WasmExport, std::allocator<llvm::wasm::WasmExport>>::_Vector_impl" }
%"struct.std::_Vector_base<llvm::wasm::WasmExport, std::allocator<llvm::wasm::WasmExport>>::_Vector_impl" = type { %"struct.std::_Vector_base<llvm::wasm::WasmExport, std::allocator<llvm::wasm::WasmExport>>::_Vector_impl_data" }
%"struct.std::_Vector_base<llvm::wasm::WasmExport, std::allocator<llvm::wasm::WasmExport>>::_Vector_impl_data" = type { ptr, ptr, ptr }
%"class.std::vector.64" = type { %"struct.std::_Vector_base.65" }
%"struct.std::_Vector_base.65" = type { %"struct.std::_Vector_base<llvm::wasm::WasmElemSegment, std::allocator<llvm::wasm::WasmElemSegment>>::_Vector_impl" }
%"struct.std::_Vector_base<llvm::wasm::WasmElemSegment, std::allocator<llvm::wasm::WasmElemSegment>>::_Vector_impl" = type { %"struct.std::_Vector_base<llvm::wasm::WasmElemSegment, std::allocator<llvm::wasm::WasmElemSegment>>::_Vector_impl_data" }
%"struct.std::_Vector_base<llvm::wasm::WasmElemSegment, std::allocator<llvm::wasm::WasmElemSegment>>::_Vector_impl_data" = type { ptr, ptr, ptr }
%"class.std::vector.69" = type { %"struct.std::_Vector_base.70" }
%"struct.std::_Vector_base.70" = type { %"struct.std::_Vector_base<llvm::object::WasmSegment, std::allocator<llvm::object::WasmSegment>>::_Vector_impl" }
%"struct.std::_Vector_base<llvm::object::WasmSegment, std::allocator<llvm::object::WasmSegment>>::_Vector_impl" = type { %"struct.std::_Vector_base<llvm::object::WasmSegment, std::allocator<llvm::object::WasmSegment>>::_Vector_impl_data" }
%"struct.std::_Vector_base<llvm::object::WasmSegment, std::allocator<llvm::object::WasmSegment>>::_Vector_impl_data" = type { ptr, ptr, ptr }
%"class.std::optional.74" = type { %"struct.std::_Optional_base.75" }
%"struct.std::_Optional_base.75" = type { %"struct.std::_Optional_payload.77" }
%"struct.std::_Optional_payload.77" = type { %"struct.std::_Optional_payload_base.base.79", [7 x i8] }
%"struct.std::_Optional_payload_base.base.79" = type <{ %"union.std::_Optional_payload_base<unsigned long>::_Storage", i8 }>
%"union.std::_Optional_payload_base<unsigned long>::_Storage" = type { i64 }
%"class.std::vector.82" = type { %"struct.std::_Vector_base.83" }
%"struct.std::_Vector_base.83" = type { %"struct.std::_Vector_base<llvm::wasm::WasmFunction, std::allocator<llvm::wasm::WasmFunction>>::_Vector_impl" }
%"struct.std::_Vector_base<llvm::wasm::WasmFunction, std::allocator<llvm::wasm::WasmFunction>>::_Vector_impl" = type { %"struct.std::_Vector_base<llvm::wasm::WasmFunction, std::allocator<llvm::wasm::WasmFunction>>::_Vector_impl_data" }
%"struct.std::_Vector_base<llvm::wasm::WasmFunction, std::allocator<llvm::wasm::WasmFunction>>::_Vector_impl_data" = type { ptr, ptr, ptr }
%"class.std::vector.87" = type { %"struct.std::_Vector_base.88" }
%"struct.std::_Vector_base.88" = type { %"struct.std::_Vector_base<llvm::object::WasmSymbol, std::allocator<llvm::object::WasmSymbol>>::_Vector_impl" }
%"struct.std::_Vector_base<llvm::object::WasmSymbol, std::allocator<llvm::object::WasmSymbol>>::_Vector_impl" = type { %"struct.std::_Vector_base<llvm::object::WasmSymbol, std::allocator<llvm::object::WasmSymbol>>::_Vector_impl_data" }
%"struct.std::_Vector_base<llvm::object::WasmSymbol, std::allocator<llvm::object::WasmSymbol>>::_Vector_impl_data" = type { ptr, ptr, ptr }
%"class.std::vector.92" = type { %"struct.std::_Vector_base.93" }
%"struct.std::_Vector_base.93" = type { %"struct.std::_Vector_base<llvm::wasm::WasmDebugName, std::allocator<llvm::wasm::WasmDebugName>>::_Vector_impl" }
%"struct.std::_Vector_base<llvm::wasm::WasmDebugName, std::allocator<llvm::wasm::WasmDebugName>>::_Vector_impl" = type { %"struct.std::_Vector_base<llvm::wasm::WasmDebugName, std::allocator<llvm::wasm::WasmDebugName>>::_Vector_impl_data" }
%"struct.std::_Vector_base<llvm::wasm::WasmDebugName, std::allocator<llvm::wasm::WasmDebugName>>::_Vector_impl_data" = type { ptr, ptr, ptr }
%"struct.llvm::wasm::WasmLinkingData" = type { i32, %"class.std::vector.97", %"class.std::vector.4" }
%"class.std::vector.97" = type { %"struct.std::_Vector_base.98" }
%"struct.std::_Vector_base.98" = type { %"struct.std::_Vector_base<llvm::wasm::WasmInitFunc, std::allocator<llvm::wasm::WasmInitFunc>>::_Vector_impl" }
%"struct.std::_Vector_base<llvm::wasm::WasmInitFunc, std::allocator<llvm::wasm::WasmInitFunc>>::_Vector_impl" = type { %"struct.std::_Vector_base<llvm::wasm::WasmInitFunc, std::allocator<llvm::wasm::WasmInitFunc>>::_Vector_impl_data" }
%"struct.std::_Vector_base<llvm::wasm::WasmInitFunc, std::allocator<llvm::wasm::WasmInitFunc>>::_Vector_impl_data" = type { ptr, ptr, ptr }
%"struct.llvm::wasm::WasmInitExpr" = type { i8, %"struct.llvm::wasm::WasmInitExprMVP", %"class.llvm::ArrayRef" }
%"struct.llvm::wasm::WasmInitExprMVP" = type { i8, %union.anon.120 }
%union.anon.120 = type { i64 }
%"struct.llvm::object::WasmSegment" = type { i32, [4 x i8], %"struct.llvm::wasm::WasmDataSegment" }
%"struct.llvm::wasm::WasmDataSegment" = type <{ i32, i32, %"struct.llvm::wasm::WasmInitExpr", %"class.llvm::ArrayRef", %"class.llvm::StringRef", i32, i32, i32, [4 x i8] }>

; Function Attrs: mustprogress nounwind uwtable
define linkonce_odr hidden noundef nonnull align 8 dereferenceable(104) ptr @_ZNKSt6vectorIN4llvm6object11WasmSegmentESaIS2_EEixEm(ptr noundef nonnull align 8 dereferenceable(24) %0, i64 noundef %1) #0 comdat align 2 {
  %3 = alloca ptr, align 8
  %4 = alloca i64, align 8
  store ptr %0, ptr %3, align 8
  store i64 %1, ptr %4, align 8
  %5 = load ptr, ptr %3, align 8
  %6 = getelementptr inbounds nuw %"struct.std::_Vector_base.70", ptr %5, i32 0, i32 0
  %7 = getelementptr inbounds nuw %"struct.std::_Vector_base<llvm::object::WasmSegment, std::allocator<llvm::object::WasmSegment>>::_Vector_impl_data", ptr %6, i32 0, i32 0
  %8 = load ptr, ptr %7, align 8
  %9 = load i64, ptr %4, align 8
  %10 = getelementptr inbounds %"struct.llvm::object::WasmSegment", ptr %8, i64 %9
  ret ptr %10
}

; Function Attrs: mustprogress nounwind uwtable
define dso_local noundef i64 @_ZNK4llvm6object14WasmObjectFile18getWasmSymbolValueERKNS0_10WasmSymbolE(ptr noundef nonnull align 8 dereferenceable(684) %0, ptr noundef nonnull align 8 dereferenceable(144) %1) #0 align 2 {
  %3 = alloca i64, align 8
  %4 = alloca ptr, align 8
  %5 = alloca ptr, align 8
  %6 = alloca i32, align 4
  %7 = alloca ptr, align 8
  store ptr %0, ptr %4, align 8
  store ptr %1, ptr %5, align 8
  %8 = load ptr, ptr %4, align 8
  %9 = load ptr, ptr %5, align 8
  %10 = getelementptr inbounds nuw %"class.llvm::object::WasmSymbol", ptr %9, i32 0, i32 0
  %11 = getelementptr inbounds nuw %"struct.llvm::wasm::WasmSymbolInfo", ptr %10, i32 0, i32 1
  %12 = load i8, ptr %11, align 8
  %13 = zext i8 %12 to i32
  switch i32 %13, label %94 [
    i32 0, label %14
    i32 2, label %14
    i32 4, label %14
    i32 5, label %14
    i32 1, label %20
    i32 3, label %93
  ]

14:                                               ; preds = %2, %2, %2, %2
  %15 = load ptr, ptr %5, align 8
  %16 = getelementptr inbounds nuw %"class.llvm::object::WasmSymbol", ptr %15, i32 0, i32 0
  %17 = getelementptr inbounds nuw %"struct.llvm::wasm::WasmSymbolInfo", ptr %16, i32 0, i32 6
  %18 = load i32, ptr %17, align 8
  %19 = zext i32 %18 to i64
  store i64 %19, ptr %3, align 8
  br label %95

20:                                               ; preds = %2
  %21 = load ptr, ptr %5, align 8
  %22 = getelementptr inbounds nuw %"class.llvm::object::WasmSymbol", ptr %21, i32 0, i32 0
  %23 = getelementptr inbounds nuw %"struct.llvm::wasm::WasmSymbolInfo", ptr %22, i32 0, i32 6
  %24 = getelementptr inbounds nuw %"struct.llvm::wasm::WasmDataReference", ptr %23, i32 0, i32 0
  %25 = load i32, ptr %24, align 8
  store i32 %25, ptr %6, align 4
  %26 = getelementptr inbounds nuw %"class.llvm::object::WasmObjectFile", ptr %8, i32 0, i32 14
  %27 = load i32, ptr %6, align 4
  %28 = zext i32 %27 to i64
  %29 = call noundef nonnull align 8 dereferenceable(104) ptr @_ZNKSt6vectorIN4llvm6object11WasmSegmentESaIS2_EEixEm(ptr noundef nonnull align 8 dereferenceable(24) %26, i64 noundef %28) #12
  %30 = getelementptr inbounds nuw %"struct.llvm::object::WasmSegment", ptr %29, i32 0, i32 2
  store ptr %30, ptr %7, align 8
  %31 = load ptr, ptr %7, align 8
  %32 = getelementptr inbounds nuw %"struct.llvm::wasm::WasmDataSegment", ptr %31, i32 0, i32 2
  %33 = getelementptr inbounds nuw %"struct.llvm::wasm::WasmInitExpr", ptr %32, i32 0, i32 0
  %34 = load i8, ptr %33, align 8
  %35 = icmp ne i8 %34, 0
  br i1 %35, label %36, label %37

36:                                               ; preds = %20
  unreachable

37:                                               ; preds = %20
  %38 = load ptr, ptr %7, align 8
  %39 = getelementptr inbounds nuw %"struct.llvm::wasm::WasmDataSegment", ptr %38, i32 0, i32 2
  %40 = getelementptr inbounds nuw %"struct.llvm::wasm::WasmInitExpr", ptr %39, i32 0, i32 1
  %41 = getelementptr inbounds nuw %"struct.llvm::wasm::WasmInitExprMVP", ptr %40, i32 0, i32 0
  %42 = load i8, ptr %41, align 8
  %43 = zext i8 %42 to i32
  %44 = icmp eq i32 %43, 65
  br i1 %44, label %45, label %58

45:                                               ; preds = %37
  %46 = load ptr, ptr %7, align 8
  %47 = getelementptr inbounds nuw %"struct.llvm::wasm::WasmDataSegment", ptr %46, i32 0, i32 2
  %48 = getelementptr inbounds nuw %"struct.llvm::wasm::WasmInitExpr", ptr %47, i32 0, i32 1
  %49 = getelementptr inbounds nuw %"struct.llvm::wasm::WasmInitExprMVP", ptr %48, i32 0, i32 1
  %50 = load i32, ptr %49, align 8
  %51 = sext i32 %50 to i64
  %52 = load ptr, ptr %5, align 8
  %53 = getelementptr inbounds nuw %"class.llvm::object::WasmSymbol", ptr %52, i32 0, i32 0
  %54 = getelementptr inbounds nuw %"struct.llvm::wasm::WasmSymbolInfo", ptr %53, i32 0, i32 6
  %55 = getelementptr inbounds nuw %"struct.llvm::wasm::WasmDataReference", ptr %54, i32 0, i32 1
  %56 = load i64, ptr %55, align 8
  %57 = add i64 %51, %56
  store i64 %57, ptr %3, align 8
  br label %95

58:                                               ; preds = %37
  %59 = load ptr, ptr %7, align 8
  %60 = getelementptr inbounds nuw %"struct.llvm::wasm::WasmDataSegment", ptr %59, i32 0, i32 2
  %61 = getelementptr inbounds nuw %"struct.llvm::wasm::WasmInitExpr", ptr %60, i32 0, i32 1
  %62 = getelementptr inbounds nuw %"struct.llvm::wasm::WasmInitExprMVP", ptr %61, i32 0, i32 0
  %63 = load i8, ptr %62, align 8
  %64 = zext i8 %63 to i32
  %65 = icmp eq i32 %64, 66
  br i1 %65, label %66, label %78

66:                                               ; preds = %58
  %67 = load ptr, ptr %7, align 8
  %68 = getelementptr inbounds nuw %"struct.llvm::wasm::WasmDataSegment", ptr %67, i32 0, i32 2
  %69 = getelementptr inbounds nuw %"struct.llvm::wasm::WasmInitExpr", ptr %68, i32 0, i32 1
  %70 = getelementptr inbounds nuw %"struct.llvm::wasm::WasmInitExprMVP", ptr %69, i32 0, i32 1
  %71 = load i64, ptr %70, align 8
  %72 = load ptr, ptr %5, align 8
  %73 = getelementptr inbounds nuw %"class.llvm::object::WasmSymbol", ptr %72, i32 0, i32 0
  %74 = getelementptr inbounds nuw %"struct.llvm::wasm::WasmSymbolInfo", ptr %73, i32 0, i32 6
  %75 = getelementptr inbounds nuw %"struct.llvm::wasm::WasmDataReference", ptr %74, i32 0, i32 1
  %76 = load i64, ptr %75, align 8
  %77 = add i64 %71, %76
  store i64 %77, ptr %3, align 8
  br label %95

78:                                               ; preds = %58
  %79 = load ptr, ptr %7, align 8
  %80 = getelementptr inbounds nuw %"struct.llvm::wasm::WasmDataSegment", ptr %79, i32 0, i32 2
  %81 = getelementptr inbounds nuw %"struct.llvm::wasm::WasmInitExpr", ptr %80, i32 0, i32 1
  %82 = getelementptr inbounds nuw %"struct.llvm::wasm::WasmInitExprMVP", ptr %81, i32 0, i32 0
  %83 = load i8, ptr %82, align 8
  %84 = zext i8 %83 to i32
  %85 = icmp eq i32 %84, 35
  br i1 %85, label %86, label %92

86:                                               ; preds = %78
  %87 = load ptr, ptr %5, align 8
  %88 = getelementptr inbounds nuw %"class.llvm::object::WasmSymbol", ptr %87, i32 0, i32 0
  %89 = getelementptr inbounds nuw %"struct.llvm::wasm::WasmSymbolInfo", ptr %88, i32 0, i32 6
  %90 = getelementptr inbounds nuw %"struct.llvm::wasm::WasmDataReference", ptr %89, i32 0, i32 1
  %91 = load i64, ptr %90, align 8
  store i64 %91, ptr %3, align 8
  br label %95

92:                                               ; preds = %78
  unreachable

93:                                               ; preds = %2
  store i64 0, ptr %3, align 8
  br label %95

94:                                               ; preds = %2
  unreachable

95:                                               ; preds = %93, %86, %66, %45, %14
  %96 = load i64, ptr %3, align 8
  ret i64 %96
}