; Function Attrs: mustprogress nofree norecurse nosync nounwind willreturn memory(read, inaccessiblemem: write) uwtable
define dso_local noundef i64 @_ZNK4llvm6object14WasmObjectFile18getWasmSymbolValueERKNS0_10WasmSymbolE(ptr nocapture noundef nonnull readonly align 8 dereferenceable(684) %0, ptr nocapture noundef nonnull readonly align 8 dereferenceable(144) %1) local_unnamed_addr #11 align 2 {
  %3 = getelementptr inbounds nuw i8, ptr %1, i64 16
  %4 = load i8, ptr %3, align 8
  switch i8 %4, label %37 [
    i8 0, label %5
    i8 2, label %5
    i8 4, label %5
    i8 5, label %5
    i8 1, label %9
    i8 3, label %38
  ]

5:                                                ; preds = %2, %2, %2, %2
  %6 = getelementptr inbounds nuw i8, ptr %1, i64 96
  %7 = load i32, ptr %6, align 8
  %8 = zext i32 %7 to i64
  br label %38

9:                                                ; preds = %2
  %10 = getelementptr inbounds nuw i8, ptr %1, i64 96
  %11 = load i32, ptr %10, align 8
  %12 = getelementptr inbounds nuw i8, ptr %0, i64 472
  %13 = zext i32 %11 to i64
  %14 = load ptr, ptr %12, align 8
  %15 = getelementptr inbounds %"struct.llvm::object::WasmSegment", ptr %14, i64 %13
  %16 = getelementptr inbounds i8, ptr %15, i64 16
  %17 = load i8, ptr %16, align 8
  %.not = icmp eq i8 %17, 0
  tail call void @llvm.assume(i1 %.not)
  %18 = getelementptr inbounds i8, ptr %15, i64 24
  %19 = load i8, ptr %18, align 8
  switch i8 %19, label %33 [
    i8 65, label %20
    i8 66, label %27
  ]

20:                                               ; preds = %9
  %21 = getelementptr inbounds i8, ptr %15, i64 32
  %22 = load i32, ptr %21, align 8
  %23 = sext i32 %22 to i64
  %24 = getelementptr inbounds i8, ptr %1, i64 104
  %25 = load i64, ptr %24, align 8
  %26 = add i64 %25, %23
  br label %38

27:                                               ; preds = %9
  %28 = getelementptr inbounds i8, ptr %15, i64 32
  %29 = load i64, ptr %28, align 8
  %30 = getelementptr inbounds i8, ptr %1, i64 104
  %31 = load i64, ptr %30, align 8
  %32 = add i64 %31, %29
  br label %38

33:                                               ; preds = %9
  %34 = icmp eq i8 %19, 35
  tail call void @llvm.assume(i1 %34)
  %35 = getelementptr inbounds i8, ptr %1, i64 104
  %36 = load i64, ptr %35, align 8
  br label %38

37:                                               ; preds = %2
  unreachable

38:                                               ; preds = %2, %33, %27, %20, %5
  %.0 = phi i64 [ %26, %20 ], [ %32, %27 ], [ %36, %33 ], [ %8, %5 ], [ 0, %2 ]
  ret i64 %.0
}